TN:
SF:/usr/include/c++/9/bits/stl_iterator_base_types.h
FN:205,_ZSt19__iterator_categoryIPcENSt15iterator_traitsIT_E17iterator_categoryERKS2_
FNDA:0,_ZSt19__iterator_categoryIPcENSt15iterator_traitsIT_E17iterator_categoryERKS2_
FN:205,_ZSt19__iterator_categoryIPKcENSt15iterator_traitsIT_E17iterator_categoryERKS3_
FNDA:0,_ZSt19__iterator_categoryIPKcENSt15iterator_traitsIT_E17iterator_categoryERKS3_
DA:205,0
DA:206,0
DA:205,0
DA:206,0
end_of_record
SF:/usr/include/gtest/internal/gtest-port.h
FN:1120,_ZN7testing8internal10scoped_ptrINSt7__cxx1112basic_stringIcSt11char_traitsIcESaIcEEEED2Ev
FNDA:6,_ZN7testing8internal10scoped_ptrINSt7__cxx1112basic_stringIcSt11char_traitsIcESaIcEEEED2Ev
FN:1120,_ZN7testing8internal10scoped_ptrINSt7__cxx1118basic_stringstreamIcSt11char_traitsIcESaIcEEEED2Ev
FNDA:48,_ZN7testing8internal10scoped_ptrINSt7__cxx1118basic_stringstreamIcSt11char_traitsIcESaIcEEEED2Ev
FN:1123,_ZNK7testing8internal10scoped_ptrINSt7__cxx1112basic_stringIcSt11char_traitsIcESaIcEEEEptEv
FNDA:0,_ZNK7testing8internal10scoped_ptrINSt7__cxx1112basic_stringIcSt11char_traitsIcESaIcEEEEptEv
FN:1124,_ZNK7testing8internal10scoped_ptrINSt7__cxx1112basic_stringIcSt11char_traitsIcESaIcEEEE3getEv
FNDA:0,_ZNK7testing8internal10scoped_ptrINSt7__cxx1112basic_stringIcSt11char_traitsIcESaIcEEEE3getEv
FN:1132,_ZN7testing8internal10scoped_ptrINSt7__cxx1118basic_stringstreamIcSt11char_traitsIcESaIcEEEE5resetEPS7_
FNDA:48,_ZN7testing8internal10scoped_ptrINSt7__cxx1118basic_stringstreamIcSt11char_traitsIcESaIcEEEE5resetEPS7_
FN:1132,_ZN7testing8internal10scoped_ptrINSt7__cxx1112basic_stringIcSt11char_traitsIcESaIcEEEE5resetEPS7_
FNDA:6,_ZN7testing8internal10scoped_ptrINSt7__cxx1112basic_stringIcSt11char_traitsIcESaIcEEEE5resetEPS7_
DA:1120,6
DA:1120,48
DA:1123,0
DA:1124,0
DA:1132,48
DA:1133,48
DA:1134,48
DA:1135,48
DA:1137,48
DA:1139,48
DA:1132,6
DA:1133,6
DA:1134,0
DA:1135,0
DA:1137,0
DA:1139,6
end_of_record
SF:/usr/include/gtest/gtest-message.h
end_of_record
SF:/usr/include/c++/9/bits/stl_stack.h
FN:156,_ZNSt5stackI4NodeSt5dequeIS0_SaIS0_EEEC2IS3_vEEv
FNDA:6,_ZNSt5stackI4NodeSt5dequeIS0_SaIS0_EEEC2IS3_vEEv
FN:198,_ZNKSt5stackI4NodeSt5dequeIS0_SaIS0_EEE4sizeEv
FNDA:36,_ZNKSt5stackI4NodeSt5dequeIS0_SaIS0_EEE4sizeEv
FN:206,_ZNSt5stackI4NodeSt5dequeIS0_SaIS0_EEE3topEv
FNDA:57,_ZNSt5stackI4NodeSt5dequeIS0_SaIS0_EEE3topEv
FN:233,_ZNSt5stackI4NodeSt5dequeIS0_SaIS0_EEE4pushERKS0_
FNDA:30,_ZNSt5stackI4NodeSt5dequeIS0_SaIS0_EEE4pushERKS0_
FN:238,_ZNSt5stackI4NodeSt5dequeIS0_SaIS0_EEE4pushEOS0_
FNDA:31,_ZNSt5stackI4NodeSt5dequeIS0_SaIS0_EEE4pushEOS0_
FN:266,_ZNSt5stackI4NodeSt5dequeIS0_SaIS0_EEE3popEv
FNDA:55,_ZNSt5stackI4NodeSt5dequeIS0_SaIS0_EEE3popEv
DA:156,6
DA:157,6
DA:198,36
DA:199,36
DA:206,57
DA:209,57
DA:233,30
DA:234,30
DA:238,31
DA:239,31
DA:266,55
DA:269,55
DA:270,55
end_of_record
SF:/usr/include/c++/9/bits/allocator.h
FN:138,_ZNSaI4NodeEC2Ev
FNDA:6,_ZNSaI4NodeEC2Ev
FN:151,_ZNSaIP4NodeEC2IS_EERKSaIT_E
FNDA:12,_ZNSaIP4NodeEC2IS_EERKSaIT_E
FN:153,_ZNSaIP4NodeED2Ev
FNDA:12,_ZNSaIP4NodeED2Ev
FN:153,_ZNSaI4NodeED2Ev
FNDA:6,_ZNSaI4NodeED2Ev
DA:138,6
DA:151,12
DA:153,12
DA:153,6
end_of_record
SF:/usr/include/gtest/gtest.h
FN:288,_ZNK7testing15AssertionResultcvbEv
FNDA:6,_ZNK7testing15AssertionResultcvbEv
FN:297,_ZNK7testing15AssertionResult7messageEv
FNDA:0,_ZNK7testing15AssertionResult7messageEv
FN:302,_ZNK7testing15AssertionResult15failure_messageEv
FNDA:0,_ZNK7testing15AssertionResult15failure_messageEv
FN:389,_ZN7testing4Test13SetUpTestCaseEv
FNDA:1,_ZN7testing4Test13SetUpTestCaseEv
FN:397,_ZN7testing4Test16TearDownTestCaseEv
FNDA:1,_ZN7testing4Test16TearDownTestCaseEv
FN:474,_ZN7testing4Test5SetupEv
FNDA:0,_ZN7testing4Test5SetupEv
FN:1375,_ZN7testing8internal18CmpHelperEQFailureIA6_cNSt7__cxx1112basic_stringIcSt11char_traitsIcESaIcEEEEENS_15AssertionResultEPKcSB_RKT_RKT0_
FNDA:0,_ZN7testing8internal18CmpHelperEQFailureIA6_cNSt7__cxx1112basic_stringIcSt11char_traitsIcESaIcEEEEENS_15AssertionResultEPKcSB_RKT_RKT0_
FN:1375,_ZN7testing8internal18CmpHelperEQFailureIA3_cNSt7__cxx1112basic_stringIcSt11char_traitsIcESaIcEEEEENS_15AssertionResultEPKcSB_RKT_RKT0_
FNDA:0,_ZN7testing8internal18CmpHelperEQFailureIA3_cNSt7__cxx1112basic_stringIcSt11char_traitsIcESaIcEEEEENS_15AssertionResultEPKcSB_RKT_RKT0_
FN:1375,_ZN7testing8internal18CmpHelperEQFailureIA4_cNSt7__cxx1112basic_stringIcSt11char_traitsIcESaIcEEEEENS_15AssertionResultEPKcSB_RKT_RKT0_
FNDA:0,_ZN7testing8internal18CmpHelperEQFailureIA4_cNSt7__cxx1112basic_stringIcSt11char_traitsIcESaIcEEEEENS_15AssertionResultEPKcSB_RKT_RKT0_
FN:1387,_ZN7testing8internal11CmpHelperEQIA6_cNSt7__cxx1112basic_stringIcSt11char_traitsIcESaIcEEEEENS_15AssertionResultEPKcSB_RKT_RKT0_
FNDA:4,_ZN7testing8internal11CmpHelperEQIA6_cNSt7__cxx1112basic_stringIcSt11char_traitsIcESaIcEEEEENS_15AssertionResultEPKcSB_RKT_RKT0_
FN:1387,_ZN7testing8internal11CmpHelperEQIA3_cNSt7__cxx1112basic_stringIcSt11char_traitsIcESaIcEEEEENS_15AssertionResultEPKcSB_RKT_RKT0_
FNDA:1,_ZN7testing8internal11CmpHelperEQIA3_cNSt7__cxx1112basic_stringIcSt11char_traitsIcESaIcEEEEENS_15AssertionResultEPKcSB_RKT_RKT0_
FN:1387,_ZN7testing8internal11CmpHelperEQIA4_cNSt7__cxx1112basic_stringIcSt11char_traitsIcESaIcEEEEENS_15AssertionResultEPKcSB_RKT_RKT0_
FNDA:1,_ZN7testing8internal11CmpHelperEQIA4_cNSt7__cxx1112basic_stringIcSt11char_traitsIcESaIcEEEEENS_15AssertionResultEPKcSB_RKT_RKT0_
FN:1417,_ZN7testing8internal8EqHelperILb0EE7CompareIA6_cNSt7__cxx1112basic_stringIcSt11char_traitsIcESaIcEEEEENS_15AssertionResultEPKcSD_RKT_RKT0_
FNDA:4,_ZN7testing8internal8EqHelperILb0EE7CompareIA6_cNSt7__cxx1112basic_stringIcSt11char_traitsIcESaIcEEEEENS_15AssertionResultEPKcSD_RKT_RKT0_
FN:1417,_ZN7testing8internal8EqHelperILb0EE7CompareIA3_cNSt7__cxx1112basic_stringIcSt11char_traitsIcESaIcEEEEENS_15AssertionResultEPKcSD_RKT_RKT0_
FNDA:1,_ZN7testing8internal8EqHelperILb0EE7CompareIA3_cNSt7__cxx1112basic_stringIcSt11char_traitsIcESaIcEEEEENS_15AssertionResultEPKcSD_RKT_RKT0_
FN:1417,_ZN7testing8internal8EqHelperILb0EE7CompareIA4_cNSt7__cxx1112basic_stringIcSt11char_traitsIcESaIcEEEEENS_15AssertionResultEPKcSD_RKT_RKT0_
FNDA:1,_ZN7testing8internal8EqHelperILb0EE7CompareIA4_cNSt7__cxx1112basic_stringIcSt11char_traitsIcESaIcEEEEENS_15AssertionResultEPKcSD_RKT_RKT0_
FN:2232,_Z13RUN_ALL_TESTSv
FNDA:1,_Z13RUN_ALL_TESTSv
DA:288,6
DA:297,0
DA:298,0
DA:302,0
DA:389,1
DA:397,1
DA:474,0
DA:1375,0
DA:1382,0
DA:1375,0
DA:1382,0
DA:1375,0
DA:1382,0
DA:1387,4
DA:1392,4
DA:1393,4
DA:1397,0
DA:1387,1
DA:1392,1
DA:1393,1
DA:1397,0
DA:1387,1
DA:1392,1
DA:1393,1
DA:1397,0
DA:1417,4
DA:1421,4
DA:1417,1
DA:1421,1
DA:1417,1
DA:1421,1
DA:2232,1
DA:2233,1
end_of_record
SF:/usr/include/c++/9/ext/type_traits.h
FN:152,_ZN9__gnu_cxx17__is_null_pointerIcEEbPT_
FNDA:0,_ZN9__gnu_cxx17__is_null_pointerIcEEbPT_
FN:152,_ZN9__gnu_cxx17__is_null_pointerIKcEEbPT_
FNDA:0,_ZN9__gnu_cxx17__is_null_pointerIKcEEbPT_
DA:152,0
DA:153,0
DA:152,0
DA:153,0
end_of_record
SF:/usr/include/c++/9/bits/cpp_type_traits.h
FN:428,_ZSt12__miter_baseIPP4NodeET_S3_
FNDA:0,_ZSt12__miter_baseIPP4NodeET_S3_
DA:428,0
DA:429,0
end_of_record
SF:/usr/include/c++/9/bits/stl_iterator_base_funcs.h
FN:98,_ZSt10__distanceIPcENSt15iterator_traitsIT_E15difference_typeES2_S2_St26random_access_iterator_tag
FNDA:0,_ZSt10__distanceIPcENSt15iterator_traitsIT_E15difference_typeES2_S2_St26random_access_iterator_tag
FN:98,_ZSt10__distanceIPKcENSt15iterator_traitsIT_E15difference_typeES3_S3_St26random_access_iterator_tag
FNDA:0,_ZSt10__distanceIPKcENSt15iterator_traitsIT_E15difference_typeES3_S3_St26random_access_iterator_tag
FN:138,_ZSt8distanceIPcENSt15iterator_traitsIT_E15difference_typeES2_S2_
FNDA:0,_ZSt8distanceIPcENSt15iterator_traitsIT_E15difference_typeES2_S2_
FN:138,_ZSt8distanceIPKcENSt15iterator_traitsIT_E15difference_typeES3_S3_
FNDA:0,_ZSt8distanceIPKcENSt15iterator_traitsIT_E15difference_typeES3_S3_
DA:98,0
DA:104,0
DA:98,0
DA:104,0
DA:138,0
DA:141,0
DA:142,0
DA:138,0
DA:141,0
DA:142,0
end_of_record
SF:/usr/include/c++/9/bits/move.h
FN:47,_ZSt11__addressofI4NodeEPT_RS1_
FNDA:6,_ZSt11__addressofI4NodeEPT_RS1_
FN:74,_ZSt7forwardIRK4NodeEOT_RNSt16remove_referenceIS3_E4typeE
FNDA:60,_ZSt7forwardIRK4NodeEOT_RNSt16remove_referenceIS3_E4typeE
FN:74,_ZSt7forwardI4NodeEOT_RNSt16remove_referenceIS1_E4typeE
FNDA:93,_ZSt7forwardI4NodeEOT_RNSt16remove_referenceIS1_E4typeE
FN:99,_ZSt4moveIR4NodeEONSt16remove_referenceIT_E4typeEOS3_
FNDA:62,_ZSt4moveIR4NodeEONSt16remove_referenceIT_E4typeEOS3_
FN:99,_ZSt4moveIRSaIcEEONSt16remove_referenceIT_E4typeEOS3_
FNDA:0,_ZSt4moveIRSaIcEEONSt16remove_referenceIT_E4typeEOS3_
DA:47,6
DA:48,6
DA:74,60
DA:75,60
DA:74,93
DA:75,93
DA:99,62
DA:100,62
DA:99,0
DA:100,0
end_of_record
SF:/home/artem/Рабочий стол/ФОРМАЛКИ/Practicum_1/handler.h
FN:12,_ZN7HandlerC2ERKNSt7__cxx1112basic_stringIcSt11char_traitsIcESaIcEEEjj
FNDA:6,_ZN7HandlerC2ERKNSt7__cxx1112basic_stringIcSt11char_traitsIcESaIcEEEjj
FN:15,_ZN7Handler7pushNewEc
FNDA:31,_ZN7Handler7pushNewEc
FN:19,_ZN7Handler11kliniHandleEv
FNDA:6,_ZN7Handler11kliniHandleEv
FN:30,_ZN7Handler21binaryOperationHandleEc
FNDA:27,_ZN7Handler21binaryOperationHandleEc
FN:49,_ZN7Handler6HandleEv
FNDA:6,_ZN7Handler6HandleEv
FN:70,_ZN7Handler6getAnsB5cxx11Ev
FNDA:6,_ZN7Handler6getAnsB5cxx11Ev
DA:12,6
DA:13,6
DA:15,31
DA:16,31
DA:17,31
DA:19,6
DA:20,6
DA:21,1
DA:23,5
DA:24,5
DA:25,5
DA:26,5
DA:27,5
DA:30,27
DA:31,27
DA:32,2
DA:34,50
DA:35,50
DA:36,25
DA:37,25
DA:38,25
DA:39,25
DA:40,8
DA:43,17
DA:45,25
DA:46,25
DA:49,6
DA:50,6
DA:51,67
DA:52,64
DA:53,6
DA:55,108
DA:56,50
DA:57,27
DA:60,31
DA:62,64
DA:63,3
DA:66,3
DA:67,3
DA:70,6
DA:71,6
DA:72,4
DA:74,2
end_of_record
SF:/usr/include/c++/9/bits/char_traits.h
FN:329,_ZNSt11char_traitsIcE6lengthEPKc
FNDA:0,_ZNSt11char_traitsIcE6lengthEPKc
DA:329,0
DA:335,0
end_of_record
SF:/usr/include/c++/9/ext/alloc_traits.h
FN:97,_ZN9__gnu_cxx14__alloc_traitsISaIcEcE17_S_select_on_copyERKS1_
FNDA:0,_ZN9__gnu_cxx14__alloc_traitsISaIcEcE17_S_select_on_copyERKS1_
DA:97,0
DA:98,0
end_of_record
SF:/usr/include/c++/9/ext/new_allocator.h
FN:80,_ZN9__gnu_cxx13new_allocatorIP4NodeEC2Ev
FNDA:12,_ZN9__gnu_cxx13new_allocatorIP4NodeEC2Ev
FN:80,_ZN9__gnu_cxx13new_allocatorI4NodeEC2Ev
FNDA:6,_ZN9__gnu_cxx13new_allocatorI4NodeEC2Ev
FN:80,_ZN9__gnu_cxx13new_allocatorIcEC2Ev
FNDA:0,_ZN9__gnu_cxx13new_allocatorIcEC2Ev
FN:83,_ZN9__gnu_cxx13new_allocatorIcEC2ERKS1_
FNDA:0,_ZN9__gnu_cxx13new_allocatorIcEC2ERKS1_
FN:89,_ZN9__gnu_cxx13new_allocatorIP4NodeED2Ev
FNDA:12,_ZN9__gnu_cxx13new_allocatorIP4NodeED2Ev
FN:89,_ZN9__gnu_cxx13new_allocatorI4NodeED2Ev
FNDA:6,_ZN9__gnu_cxx13new_allocatorI4NodeED2Ev
FN:89,_ZN9__gnu_cxx13new_allocatorIcED2Ev
FNDA:0,_ZN9__gnu_cxx13new_allocatorIcED2Ev
FN:102,_ZN9__gnu_cxx13new_allocatorIP4NodeE8allocateEmPKv
FNDA:6,_ZN9__gnu_cxx13new_allocatorIP4NodeE8allocateEmPKv
FN:102,_ZN9__gnu_cxx13new_allocatorI4NodeE8allocateEmPKv
FNDA:6,_ZN9__gnu_cxx13new_allocatorI4NodeE8allocateEmPKv
FN:119,_ZN9__gnu_cxx13new_allocatorI4NodeE10deallocateEPS1_m
FNDA:6,_ZN9__gnu_cxx13new_allocatorI4NodeE10deallocateEPS1_m
FN:119,_ZN9__gnu_cxx13new_allocatorIP4NodeE10deallocateEPS2_m
FNDA:6,_ZN9__gnu_cxx13new_allocatorIP4NodeE10deallocateEPS2_m
FN:132,_ZNK9__gnu_cxx13new_allocatorIP4NodeE8max_sizeEv
FNDA:6,_ZNK9__gnu_cxx13new_allocatorIP4NodeE8max_sizeEv
FN:132,_ZNK9__gnu_cxx13new_allocatorI4NodeE8max_sizeEv
FNDA:6,_ZNK9__gnu_cxx13new_allocatorI4NodeE8max_sizeEv
FN:144,_ZN9__gnu_cxx13new_allocatorI4NodeE9constructIS1_JS1_EEEvPT_DpOT0_
FNDA:31,_ZN9__gnu_cxx13new_allocatorI4NodeE9constructIS1_JS1_EEEvPT_DpOT0_
FN:144,_ZN9__gnu_cxx13new_allocatorI4NodeE9constructIS1_JRKS1_EEEvPT_DpOT0_
FNDA:30,_ZN9__gnu_cxx13new_allocatorI4NodeE9constructIS1_JRKS1_EEEvPT_DpOT0_
FN:151,_ZN9__gnu_cxx13new_allocatorI4NodeE7destroyIS1_EEvPT_
FNDA:55,_ZN9__gnu_cxx13new_allocatorI4NodeE7destroyIS1_EEvPT_
DA:80,12
DA:80,6
DA:80,0
DA:83,0
DA:89,12
DA:89,6
DA:89,0
DA:102,6
DA:104,6
DA:105,0
DA:114,6
DA:102,6
DA:104,6
DA:105,0
DA:114,6
DA:119,6
DA:128,6
DA:129,6
DA:119,6
DA:128,6
DA:129,6
DA:132,6
DA:135,6
DA:132,6
DA:135,6
DA:144,31
DA:147,31
DA:144,30
DA:147,30
DA:151,55
DA:153,55
end_of_record
SF:/usr/include/c++/9/new
FN:173,_ZnwmPv
FNDA:77,_ZnwmPv
FN:179,_ZdlPvS_
FNDA:0,_ZdlPvS_
DA:173,77
DA:174,77
DA:179,0
end_of_record
SF:/home/artem/Рабочий стол/ФОРМАЛКИ/Practicum_1/tests/tests.h
FN:4,_ZN35Handler_Tests_Check_YES_Answer_Test8TestBodyEv
FNDA:1,_ZN35Handler_Tests_Check_YES_Answer_Test8TestBodyEv
FN:4,_ZN35Handler_Tests_Check_YES_Answer_TestC2Ev
FNDA:1,_ZN35Handler_Tests_Check_YES_Answer_TestC2Ev
FN:13,_ZN28Handler_Tests_NO_Answer_Test8TestBodyEv
FNDA:1,_ZN28Handler_Tests_NO_Answer_Test8TestBodyEv
FN:13,_ZN28Handler_Tests_NO_Answer_TestC2Ev
FNDA:1,_ZN28Handler_Tests_NO_Answer_TestC2Ev
FN:21,_ZN47Handler_Tests_Stack_Non_Empty_ERROR_Answer_Test8TestBodyEv
FNDA:1,_ZN47Handler_Tests_Stack_Non_Empty_ERROR_Answer_Test8TestBodyEv
FN:21,_ZN47Handler_Tests_Stack_Non_Empty_ERROR_Answer_TestC2Ev
FNDA:1,_ZN47Handler_Tests_Stack_Non_Empty_ERROR_Answer_TestC2Ev
FN:29,_ZN49Handler_Tests_Klini_Stack_Empty_ERROR_Answer_Test8TestBodyEv
FNDA:1,_ZN49Handler_Tests_Klini_Stack_Empty_ERROR_Answer_Test8TestBodyEv
FN:29,_ZN49Handler_Tests_Klini_Stack_Empty_ERROR_Answer_TestC2Ev
FNDA:1,_ZN49Handler_Tests_Klini_Stack_Empty_ERROR_Answer_TestC2Ev
FN:37,_ZN48Handler_Tests_Plus_Stack_Empty_ERROR_Answer_Test8TestBodyEv
FNDA:1,_ZN48Handler_Tests_Plus_Stack_Empty_ERROR_Answer_Test8TestBodyEv
FN:37,_ZN48Handler_Tests_Plus_Stack_Empty_ERROR_Answer_TestC2Ev
FNDA:1,_ZN48Handler_Tests_Plus_Stack_Empty_ERROR_Answer_TestC2Ev
FN:45,_ZN47Handler_Tests_Dot_Stack_Empty_ERROR_Answer_Test8TestBodyEv
FNDA:1,_ZN47Handler_Tests_Dot_Stack_Empty_ERROR_Answer_Test8TestBodyEv
FN:45,_ZN47Handler_Tests_Dot_Stack_Empty_ERROR_Answer_TestC2Ev
FNDA:1,_ZN47Handler_Tests_Dot_Stack_Empty_ERROR_Answer_TestC2Ev
DA:4,1
DA:5,1
DA:6,1
DA:7,1
DA:8,1
DA:9,2
DA:4,1
DA:13,1
DA:14,1
DA:15,1
DA:16,1
DA:17,1
DA:18,2
DA:13,1
DA:21,1
DA:22,1
DA:23,1
DA:24,1
DA:25,1
DA:26,2
DA:21,1
DA:29,1
DA:30,1
DA:31,1
DA:32,1
DA:33,1
DA:34,2
DA:29,1
DA:37,1
DA:38,1
DA:39,1
DA:40,1
DA:41,1
DA:42,2
DA:37,1
DA:45,1
DA:46,1
DA:47,1
DA:48,1
DA:49,1
DA:50,2
DA:45,1
end_of_record
SF:/usr/include/gtest/internal/gtest-internal.h
FN:466,_ZN7testing8internal15TestFactoryBaseD0Ev
FNDA:0,_ZN7testing8internal15TestFactoryBaseD0Ev
FN:466,_ZN7testing8internal15TestFactoryBaseD2Ev
FNDA:6,_ZN7testing8internal15TestFactoryBaseD2Ev
FN:473,_ZN7testing8internal15TestFactoryBaseC2Ev
FNDA:6,_ZN7testing8internal15TestFactoryBaseC2Ev
FN:484,_ZN7testing8internal15TestFactoryImplI35Handler_Tests_Check_YES_Answer_TestE10CreateTestEv
FNDA:1,_ZN7testing8internal15TestFactoryImplI35Handler_Tests_Check_YES_Answer_TestE10CreateTestEv
FN:484,_ZN7testing8internal15TestFactoryImplI28Handler_Tests_NO_Answer_TestE10CreateTestEv
FNDA:1,_ZN7testing8internal15TestFactoryImplI28Handler_Tests_NO_Answer_TestE10CreateTestEv
FN:484,_ZN7testing8internal15TestFactoryImplI47Handler_Tests_Stack_Non_Empty_ERROR_Answer_TestE10CreateTestEv
FNDA:1,_ZN7testing8internal15TestFactoryImplI47Handler_Tests_Stack_Non_Empty_ERROR_Answer_TestE10CreateTestEv
FN:484,_ZN7testing8internal15TestFactoryImplI49Handler_Tests_Klini_Stack_Empty_ERROR_Answer_TestE10CreateTestEv
FNDA:1,_ZN7testing8internal15TestFactoryImplI49Handler_Tests_Klini_Stack_Empty_ERROR_Answer_TestE10CreateTestEv
FN:484,_ZN7testing8internal15TestFactoryImplI48Handler_Tests_Plus_Stack_Empty_ERROR_Answer_TestE10CreateTestEv
FNDA:1,_ZN7testing8internal15TestFactoryImplI48Handler_Tests_Plus_Stack_Empty_ERROR_Answer_TestE10CreateTestEv
FN:484,_ZN7testing8internal15TestFactoryImplI47Handler_Tests_Dot_Stack_Empty_ERROR_Answer_TestE10CreateTestEv
FNDA:1,_ZN7testing8internal15TestFactoryImplI47Handler_Tests_Dot_Stack_Empty_ERROR_Answer_TestE10CreateTestEv
FN:505,_ZN7testing8internal12CodeLocationC2ERKNSt7__cxx1112basic_stringIcSt11char_traitsIcESaIcEEEi
FNDA:6,_ZN7testing8internal12CodeLocationC2ERKNSt7__cxx1112basic_stringIcSt11char_traitsIcESaIcEEEi
DA:466,0
DA:466,6
DA:473,6
DA:484,1
DA:484,1
DA:484,1
DA:484,1
DA:484,1
DA:484,1
DA:505,6
end_of_record
SF:/usr/include/gtest/gtest-printers.h
FN:275,_ZN7testing8internal19FormatForComparisonINSt7__cxx1112basic_stringIcSt11char_traitsIcESaIcEEEA6_cE6FormatERKS7_
FNDA:0,_ZN7testing8internal19FormatForComparisonINSt7__cxx1112basic_stringIcSt11char_traitsIcESaIcEEEA6_cE6FormatERKS7_
FN:275,_ZN7testing8internal19FormatForComparisonINSt7__cxx1112basic_stringIcSt11char_traitsIcESaIcEEEA3_cE6FormatERKS7_
FNDA:0,_ZN7testing8internal19FormatForComparisonINSt7__cxx1112basic_stringIcSt11char_traitsIcESaIcEEEA3_cE6FormatERKS7_
FN:275,_ZN7testing8internal19FormatForComparisonINSt7__cxx1112basic_stringIcSt11char_traitsIcESaIcEEEA4_cE6FormatERKS7_
FNDA:0,_ZN7testing8internal19FormatForComparisonINSt7__cxx1112basic_stringIcSt11char_traitsIcESaIcEEEA4_cE6FormatERKS7_
FN:284,_ZN7testing8internal19FormatForComparisonIA6_cNSt7__cxx1112basic_stringIcSt11char_traitsIcESaIcEEEE6FormatEPKc
FNDA:0,_ZN7testing8internal19FormatForComparisonIA6_cNSt7__cxx1112basic_stringIcSt11char_traitsIcESaIcEEEE6FormatEPKc
FN:284,_ZN7testing8internal19FormatForComparisonIA3_cNSt7__cxx1112basic_stringIcSt11char_traitsIcESaIcEEEE6FormatEPKc
FNDA:0,_ZN7testing8internal19FormatForComparisonIA3_cNSt7__cxx1112basic_stringIcSt11char_traitsIcESaIcEEEE6FormatEPKc
FN:284,_ZN7testing8internal19FormatForComparisonIA4_cNSt7__cxx1112basic_stringIcSt11char_traitsIcESaIcEEEE6FormatEPKc
FNDA:0,_ZN7testing8internal19FormatForComparisonIA4_cNSt7__cxx1112basic_stringIcSt11char_traitsIcESaIcEEEE6FormatEPKc
FN:321,_ZN7testing8internal19FormatForComparisonIPKcNSt7__cxx1112basic_stringIcSt11char_traitsIcESaIcEEEE6FormatES3_
FNDA:0,_ZN7testing8internal19FormatForComparisonIPKcNSt7__cxx1112basic_stringIcSt11char_traitsIcESaIcEEEE6FormatES3_
FN:349,_ZN7testing8internal33FormatForComparisonFailureMessageINSt7__cxx1112basic_stringIcSt11char_traitsIcESaIcEEEA3_cEES7_RKT_RKT0_
FNDA:0,_ZN7testing8internal33FormatForComparisonFailureMessageINSt7__cxx1112basic_stringIcSt11char_traitsIcESaIcEEEA3_cEES7_RKT_RKT0_
FN:349,_ZN7testing8internal33FormatForComparisonFailureMessageIA4_cNSt7__cxx1112basic_stringIcSt11char_traitsIcESaIcEEEEES8_RKT_RKT0_
FNDA:0,_ZN7testing8internal33FormatForComparisonFailureMessageIA4_cNSt7__cxx1112basic_stringIcSt11char_traitsIcESaIcEEEEES8_RKT_RKT0_
FN:349,_ZN7testing8internal33FormatForComparisonFailureMessageINSt7__cxx1112basic_stringIcSt11char_traitsIcESaIcEEEA4_cEES7_RKT_RKT0_
FNDA:0,_ZN7testing8internal33FormatForComparisonFailureMessageINSt7__cxx1112basic_stringIcSt11char_traitsIcESaIcEEEA4_cEES7_RKT_RKT0_
FN:349,_ZN7testing8internal33FormatForComparisonFailureMessageIA3_cNSt7__cxx1112basic_stringIcSt11char_traitsIcESaIcEEEEES8_RKT_RKT0_
FNDA:0,_ZN7testing8internal33FormatForComparisonFailureMessageIA3_cNSt7__cxx1112basic_stringIcSt11char_traitsIcESaIcEEEEES8_RKT_RKT0_
FN:349,_ZN7testing8internal33FormatForComparisonFailureMessageIA6_cNSt7__cxx1112basic_stringIcSt11char_traitsIcESaIcEEEEES8_RKT_RKT0_
FNDA:0,_ZN7testing8internal33FormatForComparisonFailureMessageIA6_cNSt7__cxx1112basic_stringIcSt11char_traitsIcESaIcEEEEES8_RKT_RKT0_
FN:349,_ZN7testing8internal33FormatForComparisonFailureMessageINSt7__cxx1112basic_stringIcSt11char_traitsIcESaIcEEEA6_cEES7_RKT_RKT0_
FNDA:0,_ZN7testing8internal33FormatForComparisonFailureMessageINSt7__cxx1112basic_stringIcSt11char_traitsIcESaIcEEEA6_cEES7_RKT_RKT0_
FN:565,_ZN7testing8internal7PrintToERKNSt7__cxx1112basic_stringIcSt11char_traitsIcESaIcEEEPSo
FNDA:0,_ZN7testing8internal7PrintToERKNSt7__cxx1112basic_stringIcSt11char_traitsIcESaIcEEEPSo
FN:698,_ZN7testing8internal16UniversalPrinterINSt7__cxx1112basic_stringIcSt11char_traitsIcESaIcEEEE5PrintERKS7_PSo
FNDA:0,_ZN7testing8internal16UniversalPrinterINSt7__cxx1112basic_stringIcSt11char_traitsIcESaIcEEEE5PrintERKS7_PSo
FN:783,_ZN7testing8internal21UniversalTersePrinterINSt7__cxx1112basic_stringIcSt11char_traitsIcESaIcEEEE5PrintERKS7_PSo
FNDA:0,_ZN7testing8internal21UniversalTersePrinterINSt7__cxx1112basic_stringIcSt11char_traitsIcESaIcEEEE5PrintERKS7_PSo
FN:804,_ZN7testing8internal21UniversalTersePrinterIPKcE5PrintES3_PSo
FNDA:0,_ZN7testing8internal21UniversalTersePrinterIPKcE5PrintES3_PSo
FN:852,_ZN7testing8internal14UniversalPrintINSt7__cxx1112basic_stringIcSt11char_traitsIcESaIcEEEEEvRKT_PSo
FNDA:0,_ZN7testing8internal14UniversalPrintINSt7__cxx1112basic_stringIcSt11char_traitsIcESaIcEEEEEvRKT_PSo
FN:980,_ZN7testing13PrintToStringIPKcEENSt7__cxx1112basic_stringIcSt11char_traitsIcESaIcEEERKT_
FNDA:0,_ZN7testing13PrintToStringIPKcEENSt7__cxx1112basic_stringIcSt11char_traitsIcESaIcEEERKT_
FN:980,_ZN7testing13PrintToStringINSt7__cxx1112basic_stringIcSt11char_traitsIcESaIcEEEEES6_RKT_
FNDA:0,_ZN7testing13PrintToStringINSt7__cxx1112basic_stringIcSt11char_traitsIcESaIcEEEEES6_RKT_
DA:275,0
DA:276,0
DA:275,0
DA:276,0
DA:275,0
DA:276,0
DA:284,0
DA:285,0
DA:284,0
DA:285,0
DA:284,0
DA:285,0
DA:321,0
DA:349,0
DA:351,0
DA:349,0
DA:351,0
DA:349,0
DA:351,0
DA:349,0
DA:351,0
DA:349,0
DA:351,0
DA:349,0
DA:351,0
DA:565,0
DA:566,0
DA:567,0
DA:698,0
DA:707,0
DA:708,0
DA:783,0
DA:784,0
DA:785,0
DA:804,0
DA:805,0
DA:806,0
DA:808,0
DA:810,0
DA:852,0
DA:856,0
DA:857,0
DA:980,0
DA:981,0
DA:982,0
DA:983,0
DA:980,0
DA:981,0
DA:982,0
DA:983,0
end_of_record
SF:/usr/include/c++/9/bits/stl_algobase.h
FN:198,_ZSt3minImERKT_S2_S2_
FNDA:24,_ZSt3minImERKT_S2_S2_
FN:222,_ZSt3maxImERKT_S2_S2_
FNDA:18,_ZSt3maxImERKT_S2_S2_
FN:280,_ZSt12__niter_baseIPP4NodeET_S3_
FNDA:0,_ZSt12__niter_baseIPP4NodeET_S3_
FN:295,_ZSt12__niter_wrapIPP4NodeET_RKS3_S3_
FNDA:0,_ZSt12__niter_wrapIPP4NodeET_RKS3_S3_
FN:375,_ZNSt11__copy_moveILb0ELb1ESt26random_access_iterator_tagE8__copy_mIP4NodeEEPT_PKS5_S8_S6_
FNDA:0,_ZNSt11__copy_moveILb0ELb1ESt26random_access_iterator_tagE8__copy_mIP4NodeEEPT_PKS5_S8_S6_
FN:393,_ZSt13__copy_move_aILb0EPP4NodeS2_ET1_T0_S4_S3_
FNDA:0,_ZSt13__copy_move_aILb0EPP4NodeS2_ET1_T0_S4_S3_
FN:438,_ZSt14__copy_move_a2ILb0EPP4NodeS2_ET1_T0_S4_S3_
FNDA:0,_ZSt14__copy_move_a2ILb0EPP4NodeS2_ET1_T0_S4_S3_
FN:465,_ZSt4copyIPP4NodeS2_ET0_T_S4_S3_
FNDA:0,_ZSt4copyIPP4NodeS2_ET0_T_S4_S3_
FN:577,_ZNSt20__copy_move_backwardILb0ELb1ESt26random_access_iterator_tagE13__copy_move_bIP4NodeEEPT_PKS5_S8_S6_
FNDA:0,_ZNSt20__copy_move_backwardILb0ELb1ESt26random_access_iterator_tagE13__copy_move_bIP4NodeEEPT_PKS5_S8_S6_
FN:595,_ZSt22__copy_move_backward_aILb0EPP4NodeS2_ET1_T0_S4_S3_
FNDA:0,_ZSt22__copy_move_backward_aILb0EPP4NodeS2_ET1_T0_S4_S3_
FN:613,_ZSt23__copy_move_backward_a2ILb0EPP4NodeS2_ET1_T0_S4_S3_
FNDA:0,_ZSt23__copy_move_backward_a2ILb0EPP4NodeS2_ET1_T0_S4_S3_
FN:641,_ZSt13copy_backwardIPP4NodeS2_ET0_T_S4_S3_
FNDA:0,_ZSt13copy_backwardIPP4NodeS2_ET0_T_S4_S3_
DA:198,24
DA:203,24
DA:204,0
DA:205,24
DA:222,18
DA:227,18
DA:228,6
DA:229,12
DA:280,0
DA:282,0
DA:295,0
DA:296,0
DA:375,0
DA:384,0
DA:385,0
DA:386,0
DA:387,0
DA:393,0
DA:398,0
DA:404,0
DA:438,0
DA:440,0
DA:443,0
DA:465,0
DA:474,0
DA:577,0
DA:586,0
DA:587,0
DA:588,0
DA:589,0
DA:595,0
DA:600,0
DA:606,0
DA:608,0
DA:613,0
DA:615,0
DA:618,0
DA:641,0
DA:652,0
end_of_record
SF:/home/artem/Рабочий стол/ФОРМАЛКИ/Practicum_1/tests/tests_run.cpp
FN:3,main
FNDA:1,main
DA:3,1
DA:4,1
DA:5,1
end_of_record
SF:/usr/include/c++/9/bits/stl_deque.h
FN:93,_ZSt16__deque_buf_sizem
FNDA:72,_ZSt16__deque_buf_sizem
FN:130,_ZNSt15_Deque_iteratorI4NodeRS0_PS0_E14_S_buffer_sizeEv
FNDA:48,_ZNSt15_Deque_iteratorI4NodeRS0_PS0_E14_S_buffer_sizeEv
FN:150,_ZNSt15_Deque_iteratorI4NodeRS0_PS0_EC2Ev
FNDA:12,_ZNSt15_Deque_iteratorI4NodeRS0_PS0_EC2Ev
FN:167,_ZNSt15_Deque_iteratorI4NodeRS0_PS0_EC2ERKS3_
FNDA:81,_ZNSt15_Deque_iteratorI4NodeRS0_PS0_EC2ERKS3_
FN:179,_ZNKSt15_Deque_iteratorI4NodeRS0_PS0_EdeEv
FNDA:57,_ZNKSt15_Deque_iteratorI4NodeRS0_PS0_EdeEv
FN:207,_ZNSt15_Deque_iteratorI4NodeRS0_PS0_EmmEv
FNDA:57,_ZNSt15_Deque_iteratorI4NodeRS0_PS0_EmmEv
FN:273,_ZNSt15_Deque_iteratorI4NodeRS0_PS0_E11_M_set_nodeEPS2_
FNDA:12,_ZNSt15_Deque_iteratorI4NodeRS0_PS0_E11_M_set_nodeEPS2_
FN:370,_ZStmiI4NodeRS0_PS0_ENSt15_Deque_iteratorIT_T0_T1_E15difference_typeERKS7_SA_
FNDA:36,_ZStmiI4NodeRS0_PS0_ENSt15_Deque_iteratorIT_T0_T1_E15difference_typeERKS7_SA_
FN:508,_ZNSt11_Deque_baseI4NodeSaIS0_EEC2Ev
FNDA:6,_ZNSt11_Deque_baseI4NodeSaIS0_EEC2Ev
FN:575,_ZNSt11_Deque_baseI4NodeSaIS0_EE11_Deque_implC2Ev
FNDA:6,_ZNSt11_Deque_baseI4NodeSaIS0_EE11_Deque_implC2Ev
FN:605,_ZNSt11_Deque_baseI4NodeSaIS0_EE19_M_get_Tp_allocatorEv
FNDA:12,_ZNSt11_Deque_baseI4NodeSaIS0_EE19_M_get_Tp_allocatorEv
FN:609,_ZNKSt11_Deque_baseI4NodeSaIS0_EE19_M_get_Tp_allocatorEv
FNDA:12,_ZNKSt11_Deque_baseI4NodeSaIS0_EE19_M_get_Tp_allocatorEv
FN:613,_ZNKSt11_Deque_baseI4NodeSaIS0_EE20_M_get_map_allocatorEv
FNDA:12,_ZNKSt11_Deque_baseI4NodeSaIS0_EE20_M_get_map_allocatorEv
FN:617,_ZNSt11_Deque_baseI4NodeSaIS0_EE16_M_allocate_nodeEv
FNDA:6,_ZNSt11_Deque_baseI4NodeSaIS0_EE16_M_allocate_nodeEv
FN:624,_ZNSt11_Deque_baseI4NodeSaIS0_EE18_M_deallocate_nodeEPS0_
FNDA:6,_ZNSt11_Deque_baseI4NodeSaIS0_EE18_M_deallocate_nodeEPS0_
FN:631,_ZNSt11_Deque_baseI4NodeSaIS0_EE15_M_allocate_mapEm
FNDA:6,_ZNSt11_Deque_baseI4NodeSaIS0_EE15_M_allocate_mapEm
FN:638,_ZNSt11_Deque_baseI4NodeSaIS0_EE17_M_deallocate_mapEPPS0_m
FNDA:6,_ZNSt11_Deque_baseI4NodeSaIS0_EE17_M_deallocate_mapEPPS0_m
FN:678,_ZNSt11_Deque_baseI4NodeSaIS0_EED2Ev
FNDA:6,_ZNSt11_Deque_baseI4NodeSaIS0_EED2Ev
FN:699,_ZNSt11_Deque_baseI4NodeSaIS0_EE17_M_initialize_mapEm
FNDA:6,_ZNSt11_Deque_baseI4NodeSaIS0_EE17_M_initialize_mapEm
FN:738,_ZNSt11_Deque_baseI4NodeSaIS0_EE15_M_create_nodesEPPS0_S4_
FNDA:6,_ZNSt11_Deque_baseI4NodeSaIS0_EE15_M_create_nodesEPPS0_S4_
FN:756,_ZNSt11_Deque_baseI4NodeSaIS0_EE16_M_destroy_nodesEPPS0_S4_
FNDA:6,_ZNSt11_Deque_baseI4NodeSaIS0_EE16_M_destroy_nodesEPPS0_S4_
FN:889,_ZNSt5dequeI4NodeSaIS0_EE14_S_buffer_sizeEv
FNDA:0,_ZNSt5dequeI4NodeSaIS0_EE14_S_buffer_sizeEv
FN:915,_ZNSt5dequeI4NodeSaIS0_EEC2Ev
FNDA:6,_ZNSt5dequeI4NodeSaIS0_EEC2Ev
FN:1071,_ZNSt5dequeI4NodeSaIS0_EED2Ev
FNDA:6,_ZNSt5dequeI4NodeSaIS0_EED2Ev
FN:1193,_ZNSt5dequeI4NodeSaIS0_EE5beginEv
FNDA:6,_ZNSt5dequeI4NodeSaIS0_EE5beginEv
FN:1210,_ZNSt5dequeI4NodeSaIS0_EE3endEv
FNDA:63,_ZNSt5dequeI4NodeSaIS0_EE3endEv
FN:1298,_ZNKSt5dequeI4NodeSaIS0_EE4sizeEv
FNDA:36,_ZNKSt5dequeI4NodeSaIS0_EE4sizeEv
FN:1303,_ZNKSt5dequeI4NodeSaIS0_EE8max_sizeEv
FNDA:0,_ZNKSt5dequeI4NodeSaIS0_EE8max_sizeEv
FN:1500,_ZNSt5dequeI4NodeSaIS0_EE4backEv
FNDA:57,_ZNSt5dequeI4NodeSaIS0_EE4backEv
FN:1569,_ZNSt5dequeI4NodeSaIS0_EE9push_backERKS0_
FNDA:30,_ZNSt5dequeI4NodeSaIS0_EE9push_backERKS0_
FN:1584,_ZNSt5dequeI4NodeSaIS0_EE9push_backEOS0_
FNDA:31,_ZNSt5dequeI4NodeSaIS0_EE9push_backEOS0_
FN:1628,_ZNSt5dequeI4NodeSaIS0_EE8pop_backEv
FNDA:55,_ZNSt5dequeI4NodeSaIS0_EE8pop_backEv
FN:1896,_ZNSt5dequeI4NodeSaIS0_EE11_S_max_sizeERKS1_
FNDA:0,_ZNSt5dequeI4NodeSaIS0_EE11_S_max_sizeERKS1_
FN:2113,_ZNSt5dequeI4NodeSaIS0_EE15_M_destroy_dataESt15_Deque_iteratorIS0_RS0_PS0_ES6_RKS1_
FNDA:6,_ZNSt5dequeI4NodeSaIS0_EE15_M_destroy_dataESt15_Deque_iteratorIS0_RS0_PS0_ES6_RKS1_
FN:2194,_ZNSt5dequeI4NodeSaIS0_EE22_M_reserve_map_at_backEm
FNDA:0,_ZNSt5dequeI4NodeSaIS0_EE22_M_reserve_map_at_backEm
DA:93,72
DA:95,72
DA:130,48
DA:131,48
DA:150,12
DA:151,12
DA:167,81
DA:168,81
DA:169,81
DA:179,57
DA:180,57
DA:207,57
DA:209,57
DA:211,0
DA:212,0
DA:214,57
DA:215,57
DA:273,12
DA:275,12
DA:276,12
DA:277,12
DA:278,12
DA:370,36
DA:374,36
DA:375,36
DA:376,36
DA:508,6
DA:509,6
DA:510,6
DA:575,6
DA:577,6
DA:578,6
DA:605,12
DA:606,12
DA:609,12
DA:610,12
DA:613,12
DA:614,12
DA:617,6
DA:620,6
DA:624,6
DA:627,6
DA:628,6
DA:631,6
DA:633,12
DA:634,12
DA:638,6
DA:640,12
DA:641,6
DA:642,6
DA:678,6
DA:681,6
DA:683,6
DA:684,6
DA:685,6
DA:687,6
DA:699,6
DA:702,6
DA:705,12
DA:706,6
DA:707,6
DA:714,6
DA:715,6
DA:716,6
DA:719,6
DA:720,0
DA:722,0
DA:723,0
DA:724,0
DA:725,0
DA:728,6
DA:729,6
DA:730,6
DA:731,12
DA:732,6
DA:733,6
DA:734,6
DA:738,6
DA:744,12
DA:745,6
DA:747,0
DA:749,0
DA:750,0
DA:752,6
DA:756,6
DA:760,12
DA:761,6
DA:762,6
DA:889,0
DA:890,0
DA:915,6
DA:1071,6
DA:1072,6
DA:1193,6
DA:1194,6
DA:1210,63
DA:1211,63
DA:1298,36
DA:1299,36
DA:1303,0
DA:1304,0
DA:1500,57
DA:1503,57
DA:1504,57
DA:1505,57
DA:1569,30
DA:1571,30
DA:1572,30
DA:1574,30
DA:1576,30
DA:1579,0
DA:1580,30
DA:1584,31
DA:1585,31
DA:1628,55
DA:1631,55
DA:1632,55
DA:1634,55
DA:1635,55
DA:1639,0
DA:1640,55
DA:1896,0
DA:1898,0
DA:1899,0
DA:1900,0
DA:2113,6
DA:2117,6
DA:2118,6
DA:2194,0
DA:2196,0
DA:2197,0
DA:2198,0
DA:2199,0
end_of_record
SF:/usr/include/c++/9/bits/basic_string.h
FN:243,_ZNSt7__cxx1112basic_stringIcSt11char_traitsIcESaIcEE16_M_construct_auxIPcEEvT_S7_St12__false_type
FNDA:0,_ZNSt7__cxx1112basic_stringIcSt11char_traitsIcESaIcEE16_M_construct_auxIPcEEvT_S7_St12__false_type
FN:243,_ZNSt7__cxx1112basic_stringIcSt11char_traitsIcESaIcEE16_M_construct_auxIPKcEEvT_S8_St12__false_type
FNDA:0,_ZNSt7__cxx1112basic_stringIcSt11char_traitsIcESaIcEE16_M_construct_auxIPKcEEvT_S8_St12__false_type
FN:263,_ZNSt7__cxx1112basic_stringIcSt11char_traitsIcESaIcEE12_M_constructIPcEEvT_S7_
FNDA:0,_ZNSt7__cxx1112basic_stringIcSt11char_traitsIcESaIcEE12_M_constructIPcEEvT_S7_
FN:263,_ZNSt7__cxx1112basic_stringIcSt11char_traitsIcESaIcEE12_M_constructIPKcEEvT_S8_
FNDA:0,_ZNSt7__cxx1112basic_stringIcSt11char_traitsIcESaIcEE12_M_constructIPKcEEvT_S8_
FN:6163,_ZSteqIcSt11char_traitsIcESaIcEEbPKT_RKNSt7__cxx1112basic_stringIS3_T0_T1_EE
FNDA:6,_ZSteqIcSt11char_traitsIcESaIcEEbPKT_RKNSt7__cxx1112basic_stringIS3_T0_T1_EE
DA:243,0
DA:247,0
DA:248,0
DA:243,0
DA:247,0
DA:248,0
DA:263,0
DA:266,0
DA:267,0
DA:263,0
DA:266,0
DA:267,0
DA:6163,6
DA:6165,6
end_of_record
SF:/usr/include/c++/9/bits/stl_construct.h
FN:97,_ZSt8_DestroyI4NodeEvPT_
FNDA:6,_ZSt8_DestroyI4NodeEvPT_
FN:105,_ZNSt12_Destroy_auxILb0EE9__destroyIP4NodeEEvT_S4_
FNDA:6,_ZNSt12_Destroy_auxILb0EE9__destroyIP4NodeEEvT_S4_
FN:127,_ZSt8_DestroyIP4NodeEvT_S2_
FNDA:6,_ZSt8_DestroyIP4NodeEvT_S2_
FN:203,_ZSt8_DestroyIP4NodeS0_EvT_S2_RSaIT0_E
FNDA:6,_ZSt8_DestroyIP4NodeS0_EvT_S2_RSaIT0_E
DA:97,6
DA:98,6
DA:105,12
DA:107,12
DA:108,6
DA:109,6
DA:127,6
DA:137,6
DA:138,6
DA:203,6
DA:206,6
DA:207,6
end_of_record
SF:/usr/include/c++/9/bits/deque.tcc
FN:162,_ZNSt5dequeI4NodeSaIS0_EE12emplace_backIJS0_EEEvDpOT_
FNDA:31,_ZNSt5dequeI4NodeSaIS0_EE12emplace_backIJS0_EEEvDpOT_
FN:479,_ZNSt5dequeI4NodeSaIS0_EE16_M_push_back_auxIJS0_EEEvDpOT_
FNDA:0,_ZNSt5dequeI4NodeSaIS0_EE16_M_push_back_auxIJS0_EEEvDpOT_
FN:479,_ZNSt5dequeI4NodeSaIS0_EE16_M_push_back_auxIJRKS0_EEEvDpOT_
FNDA:0,_ZNSt5dequeI4NodeSaIS0_EE16_M_push_back_auxIJRKS0_EEEvDpOT_
FN:555,_ZNSt5dequeI4NodeSaIS0_EE15_M_pop_back_auxEv
FNDA:0,_ZNSt5dequeI4NodeSaIS0_EE15_M_pop_back_auxEv
FN:854,_ZNSt5dequeI4NodeSaIS0_EE19_M_destroy_data_auxESt15_Deque_iteratorIS0_RS0_PS0_ES6_
FNDA:6,_ZNSt5dequeI4NodeSaIS0_EE19_M_destroy_data_auxESt15_Deque_iteratorIS0_RS0_PS0_ES6_
FN:926,_ZNSt5dequeI4NodeSaIS0_EE17_M_reallocate_mapEmb
FNDA:0,_ZNSt5dequeI4NodeSaIS0_EE17_M_reallocate_mapEmb
DA:162,31
DA:165,31
DA:166,31
DA:168,31
DA:171,31
DA:174,0
DA:178,31
DA:479,0
DA:487,0
DA:488,0
DA:491,0
DA:492,0
DA:496,0
DA:502,0
DA:504,0
DA:506,0
DA:508,0
DA:509,0
DA:511,0
DA:479,0
DA:487,0
DA:488,0
DA:491,0
DA:492,0
DA:496,0
DA:502,0
DA:504,0
DA:506,0
DA:508,0
DA:509,0
DA:511,0
DA:555,0
DA:558,0
DA:559,0
DA:560,0
DA:561,0
DA:563,0
DA:854,6
DA:857,6
DA:858,6
DA:859,0
DA:860,0
DA:862,6
DA:864,0
DA:865,0
DA:866,0
DA:867,0
DA:870,6
DA:871,6
DA:872,6
DA:926,0
DA:929,0
DA:930,0
DA:931,0
DA:934,0
DA:936,0
DA:937,0
DA:938,0
DA:939,0
DA:940,0
DA:941,0
DA:944,0
DA:945,0
DA:946,0
DA:950,0
DA:951,0
DA:954,0
DA:955,0
DA:956,0
DA:957,0
DA:958,0
DA:960,0
DA:962,0
DA:963,0
DA:966,0
DA:967,0
DA:968,0
end_of_record
SF:/usr/include/c++/9/bits/basic_string.tcc
FN:206,_ZNSt7__cxx1112basic_stringIcSt11char_traitsIcESaIcEE12_M_constructIPcEEvT_S7_St20forward_iterator_tag
FNDA:0,_ZNSt7__cxx1112basic_stringIcSt11char_traitsIcESaIcEE12_M_constructIPcEEvT_S7_St20forward_iterator_tag
FN:206,_ZNSt7__cxx1112basic_stringIcSt11char_traitsIcESaIcEE12_M_constructIPKcEEvT_S8_St20forward_iterator_tag
FNDA:0,_ZNSt7__cxx1112basic_stringIcSt11char_traitsIcESaIcEE12_M_constructIPKcEEvT_S8_St20forward_iterator_tag
DA:206,0
DA:211,0
DA:212,0
DA:215,0
DA:217,0
DA:219,0
DA:220,0
DA:225,0
DA:226,0
DA:228,0
DA:229,0
DA:232,0
DA:233,0
DA:206,0
DA:211,0
DA:212,0
DA:215,0
DA:217,0
DA:219,0
DA:220,0
DA:225,0
DA:226,0
DA:228,0
DA:229,0
DA:232,0
DA:233,0
end_of_record
SF:/usr/include/c++/9/iostream
end_of_record
SF:/home/artem/Рабочий стол/ФОРМАЛКИ/Practicum_1/node.h
FN:18,_ZN4NodeC2Ejc
FNDA:86,_ZN4NodeC2Ejc
FN:26,_ZN4NodeaSERKS_
FNDA:30,_ZN4NodeaSERKS_
FN:37,_ZN4NodeC2ERKS_
FNDA:111,_ZN4NodeC2ERKS_
FN:46,_ZN4NodeD2Ev
FNDA:197,_ZN4NodeD2Ev
FN:50,_ZN4Node4PlusERKS_S1_
FNDA:8,_ZN4Node4PlusERKS_S1_
FN:57,_ZN4Node11updateKliniEj
FNDA:8,_ZN4Node11updateKliniEj
FN:63,_ZN4Node9KliniStarERKS_
FNDA:5,_ZN4Node9KliniStarERKS_
FN:72,_ZN4Node9updateDotEjPKb
FNDA:19,_ZN4Node9updateDotEjPKb
FN:80,_ZN4Node3DotERKS_S1_
FNDA:17,_ZN4Node3DotERKS_S1_
FN:97,_ZNK4Node6getAnsB5cxx11Ej
FNDA:2,_ZNK4Node6getAnsB5cxx11Ej
DA:18,86
DA:19,86
DA:20,390
DA:21,304
DA:23,86
DA:24,86
DA:26,30
DA:27,30
DA:28,30
DA:29,30
DA:30,30
DA:31,134
DA:32,104
DA:34,30
DA:37,111
DA:38,111
DA:39,111
DA:40,111
DA:41,502
DA:42,391
DA:44,111
DA:46,394
DA:47,197
DA:48,197
DA:50,8
DA:51,8
DA:52,38
DA:53,30
DA:55,8
DA:57,8
DA:58,36
DA:59,28
DA:61,8
DA:63,5
DA:64,5
DA:65,22
DA:66,17
DA:67,8
DA:70,5
DA:72,19
DA:73,82
DA:74,63
DA:75,24
DA:78,19
DA:80,17
DA:81,17
DA:82,74
DA:83,57
DA:84,19
DA:87,17
DA:97,2
DA:98,2
end_of_record
SF:/usr/include/c++/9/bits/alloc_traits.h
FN:443,_ZNSt16allocator_traitsISaIP4NodeEE8allocateERS2_m
FNDA:6,_ZNSt16allocator_traitsISaIP4NodeEE8allocateERS2_m
FN:443,_ZNSt16allocator_traitsISaI4NodeEE8allocateERS1_m
FNDA:6,_ZNSt16allocator_traitsISaI4NodeEE8allocateERS1_m
FN:469,_ZNSt16allocator_traitsISaI4NodeEE10deallocateERS1_PS0_m
FNDA:6,_ZNSt16allocator_traitsISaI4NodeEE10deallocateERS1_PS0_m
FN:469,_ZNSt16allocator_traitsISaIP4NodeEE10deallocateERS2_PS1_m
FNDA:6,_ZNSt16allocator_traitsISaIP4NodeEE10deallocateERS2_PS1_m
FN:482,_ZNSt16allocator_traitsISaI4NodeEE9constructIS0_JS0_EEEvRS1_PT_DpOT0_
FNDA:31,_ZNSt16allocator_traitsISaI4NodeEE9constructIS0_JS0_EEEvRS1_PT_DpOT0_
FN:482,_ZNSt16allocator_traitsISaI4NodeEE9constructIS0_JRKS0_EEEvRS1_PT_DpOT0_
FNDA:30,_ZNSt16allocator_traitsISaI4NodeEE9constructIS0_JRKS0_EEEvRS1_PT_DpOT0_
FN:495,_ZNSt16allocator_traitsISaI4NodeEE7destroyIS0_EEvRS1_PT_
FNDA:55,_ZNSt16allocator_traitsISaI4NodeEE7destroyIS0_EEvRS1_PT_
FN:505,_ZNSt16allocator_traitsISaI4NodeEE8max_sizeERKS1_
FNDA:0,_ZNSt16allocator_traitsISaI4NodeEE8max_sizeERKS1_
FN:514,_ZNSt16allocator_traitsISaIcEE37select_on_container_copy_constructionERKS0_
FNDA:0,_ZNSt16allocator_traitsISaIcEE37select_on_container_copy_constructionERKS0_
DA:443,6
DA:444,6
DA:443,6
DA:444,6
DA:469,6
DA:470,6
DA:469,6
DA:470,6
DA:482,31
DA:484,31
DA:482,30
DA:484,30
DA:495,55
DA:497,55
DA:505,0
DA:506,0
DA:514,0
DA:515,0
end_of_record
